target datalayout = "e-m:e-p270:32:32-p271:32:32-p272:64:64-i64:64-i128:128-f80:128-n8:16:32:64-S128"
target triple = "x86_64-pc-linux-gnu"

%struct.AVChannelLayout = type { i32, i32, %union.anon, ptr }
%union.anon = type { i64 }
%struct.AVFilterChannelLayouts = type { ptr, i32, i8, i8, i32, ptr }

@.str.9 = private unnamed_addr constant [27 x i8] c"Inconsistent generic list\0A\00", align 1
@.str.10 = private unnamed_addr constant [27 x i8] c"Empty channel layout list\0A\00", align 1
@.str.11 = private unnamed_addr constant [40 x i8] c"Duplicated or redundant channel layout\0A\00", align 1

; Function Attrs: nounwind uwtable
define internal i32 @layouts_compatible(ptr noundef %0, ptr noundef %1) #0 {
  %3 = alloca ptr, align 8
  %4 = alloca ptr, align 8
  store ptr %0, ptr %3, align 8, !tbaa !34
  store ptr %1, ptr %4, align 8, !tbaa !34
  %5 = load ptr, ptr %3, align 8, !tbaa !34
  %6 = load ptr, ptr %4, align 8, !tbaa !34
  %7 = call i32 @av_channel_layout_compare(ptr noundef %5, ptr noundef %6)
  %8 = icmp ne i32 %7, 0
  br i1 %8, label %9, label %71

9:                                                ; preds = %2
  %10 = load ptr, ptr %3, align 8, !tbaa !34
  %11 = getelementptr inbounds nuw %struct.AVChannelLayout, ptr %10, i32 0, i32 0
  %12 = load i32, ptr %11, align 8, !tbaa !140
  %13 = icmp eq i32 %12, 0
  br i1 %13, label %14, label %19

14:                                               ; preds = %9
  %15 = load ptr, ptr %3, align 8, !tbaa !34
  %16 = getelementptr inbounds nuw %struct.AVChannelLayout, ptr %15, i32 0, i32 1
  %17 = load i32, ptr %16, align 4, !tbaa !36
  %18 = icmp ne i32 %17, 0
  br i1 %18, label %39, label %20

19:                                               ; preds = %9
  br i1 false, label %39, label %20

20:                                               ; preds = %19, %14
  %21 = load ptr, ptr %4, align 8, !tbaa !34
  %22 = getelementptr inbounds nuw %struct.AVChannelLayout, ptr %21, i32 0, i32 0
  %23 = load i32, ptr %22, align 8, !tbaa !140
  %24 = icmp eq i32 %23, 0
  br i1 %24, label %25, label %30

25:                                               ; preds = %20
  %26 = load ptr, ptr %4, align 8, !tbaa !34
  %27 = getelementptr inbounds nuw %struct.AVChannelLayout, ptr %26, i32 0, i32 1
  %28 = load i32, ptr %27, align 4, !tbaa !36
  %29 = icmp ne i32 %28, 0
  br i1 %29, label %31, label %39

30:                                               ; preds = %20
  br i1 false, label %31, label %39

31:                                               ; preds = %30, %25
  %32 = load ptr, ptr %3, align 8, !tbaa !34
  %33 = getelementptr inbounds nuw %struct.AVChannelLayout, ptr %32, i32 0, i32 1
  %34 = load i32, ptr %33, align 4, !tbaa !36
  %35 = load ptr, ptr %4, align 8, !tbaa !34
  %36 = getelementptr inbounds nuw %struct.AVChannelLayout, ptr %35, i32 0, i32 1
  %37 = load i32, ptr %36, align 4, !tbaa !36
  %38 = icmp eq i32 %34, %37
  br i1 %38, label %71, label %39

39:                                               ; preds = %31, %30, %25, %19, %14
  %40 = load ptr, ptr %4, align 8, !tbaa !34
  %41 = getelementptr inbounds nuw %struct.AVChannelLayout, ptr %40, i32 0, i32 0
  %42 = load i32, ptr %41, align 8, !tbaa !140
  %43 = icmp eq i32 %42, 0
  br i1 %43, label %44, label %49

44:                                               ; preds = %39
  %45 = load ptr, ptr %4, align 8, !tbaa !34
  %46 = getelementptr inbounds nuw %struct.AVChannelLayout, ptr %45, i32 0, i32 1
  %47 = load i32, ptr %46, align 4, !tbaa !36
  %48 = icmp ne i32 %47, 0
  br i1 %48, label %69, label %50

49:                                               ; preds = %39
  br i1 false, label %69, label %50

50:                                               ; preds = %49, %44
  %51 = load ptr, ptr %3, align 8, !tbaa !34
  %52 = getelementptr inbounds nuw %struct.AVChannelLayout, ptr %51, i32 0, i32 0
  %53 = load i32, ptr %52, align 8, !tbaa !140
  %54 = icmp eq i32 %53, 0
  br i1 %54, label %55, label %60

55:                                               ; preds = %50
  %56 = load ptr, ptr %3, align 8, !tbaa !34
  %57 = getelementptr inbounds nuw %struct.AVChannelLayout, ptr %56, i32 0, i32 1
  %58 = load i32, ptr %57, align 4, !tbaa !36
  %59 = icmp ne i32 %58, 0
  br i1 %59, label %61, label %69

60:                                               ; preds = %50
  br i1 false, label %61, label %69

61:                                               ; preds = %60, %55
  %62 = load ptr, ptr %4, align 8, !tbaa !34
  %63 = getelementptr inbounds nuw %struct.AVChannelLayout, ptr %62, i32 0, i32 1
  %64 = load i32, ptr %63, align 4, !tbaa !36
  %65 = load ptr, ptr %3, align 8, !tbaa !34
  %66 = getelementptr inbounds nuw %struct.AVChannelLayout, ptr %65, i32 0, i32 1
  %67 = load i32, ptr %66, align 4, !tbaa !36
  %68 = icmp eq i32 %64, %67
  br label %69

69:                                               ; preds = %61, %60, %55, %49, %44
  %70 = phi i1 [ false, %60 ], [ false, %55 ], [ false, %49 ], [ false, %44 ], [ %68, %61 ]
  br label %71

71:                                               ; preds = %69, %31, %2
  %72 = phi i1 [ true, %31 ], [ true, %2 ], [ %70, %69 ]
  %73 = zext i1 %72 to i32
  ret i32 %73
}

; Function Attrs: nounwind uwtable
define i32 @ff_formats_check_channel_layouts(ptr noundef %0, ptr noundef %1) #0 {
  %3 = alloca i32, align 4
  %4 = alloca ptr, align 8
  %5 = alloca ptr, align 8
  %6 = alloca i32, align 4
  %7 = alloca i32, align 4
  %8 = alloca i32, align 4
  store ptr %0, ptr %4, align 8, !tbaa !71
  store ptr %1, ptr %5, align 8, !tbaa !38
  call void @llvm.lifetime.start.p0(i64 4, ptr %6) #7
  call void @llvm.lifetime.start.p0(i64 4, ptr %7) #7
  %9 = load ptr, ptr %5, align 8, !tbaa !38
  %10 = icmp ne ptr %9, null
  br i1 %10, label %12, label %11

11:                                               ; preds = %2
  store i32 0, ptr %3, align 4
  store i32 1, ptr %8, align 4
  br label %78

12:                                               ; preds = %2
  %13 = load ptr, ptr %5, align 8, !tbaa !38
  %14 = getelementptr inbounds nuw %struct.AVFilterChannelLayouts, ptr %13, i32 0, i32 2
  %15 = load i8, ptr %14, align 4, !tbaa !67
  %16 = sext i8 %15 to i32
  %17 = load ptr, ptr %5, align 8, !tbaa !38
  %18 = getelementptr inbounds nuw %struct.AVFilterChannelLayouts, ptr %17, i32 0, i32 3
  %19 = load i8, ptr %18, align 1, !tbaa !68
  %20 = sext i8 %19 to i32
  %21 = icmp slt i32 %16, %20
  br i1 %21, label %22, label %24

22:                                               ; preds = %12
  %23 = load ptr, ptr %4, align 8, !tbaa !71
  call void (ptr, i32, ptr, ...) @av_log(ptr noundef %23, i32 noundef 16, ptr noundef @.str.9)
  store i32 -22, ptr %3, align 4
  store i32 1, ptr %8, align 4
  br label %78

24:                                               ; preds = %12
  %25 = load ptr, ptr %5, align 8, !tbaa !38
  %26 = getelementptr inbounds nuw %struct.AVFilterChannelLayouts, ptr %25, i32 0, i32 2
  %27 = load i8, ptr %26, align 4, !tbaa !67
  %28 = icmp ne i8 %27, 0
  br i1 %28, label %36, label %29

29:                                               ; preds = %24
  %30 = load ptr, ptr %5, align 8, !tbaa !38
  %31 = getelementptr inbounds nuw %struct.AVFilterChannelLayouts, ptr %30, i32 0, i32 1
  %32 = load i32, ptr %31, align 8, !tbaa !39
  %33 = icmp ne i32 %32, 0
  br i1 %33, label %36, label %34

34:                                               ; preds = %29
  %35 = load ptr, ptr %4, align 8, !tbaa !71
  call void (ptr, i32, ptr, ...) @av_log(ptr noundef %35, i32 noundef 16, ptr noundef @.str.10)
  store i32 -22, ptr %3, align 4
  store i32 1, ptr %8, align 4
  br label %78

36:                                               ; preds = %29, %24
  store i32 0, ptr %6, align 4, !tbaa !21
  br label %37

37:                                               ; preds = %74, %36
  %38 = load i32, ptr %6, align 4, !tbaa !21
  %39 = load ptr, ptr %5, align 8, !tbaa !38
  %40 = getelementptr inbounds nuw %struct.AVFilterChannelLayouts, ptr %39, i32 0, i32 1
  %41 = load i32, ptr %40, align 8, !tbaa !39
  %42 = icmp ult i32 %38, %41
  br i1 %42, label %43, label %77

43:                                               ; preds = %37
  %44 = load i32, ptr %6, align 4, !tbaa !21
  %45 = add i32 %44, 1
  store i32 %45, ptr %7, align 4, !tbaa !21
  br label %46

46:                                               ; preds = %70, %43
  %47 = load i32, ptr %7, align 4, !tbaa !21
  %48 = load ptr, ptr %5, align 8, !tbaa !38
  %49 = getelementptr inbounds nuw %struct.AVFilterChannelLayouts, ptr %48, i32 0, i32 1
  %50 = load i32, ptr %49, align 8, !tbaa !39
  %51 = icmp ult i32 %47, %50
  br i1 %51, label %52, label %73

52:                                               ; preds = %46
  %53 = load ptr, ptr %5, align 8, !tbaa !38
  %54 = getelementptr inbounds nuw %struct.AVFilterChannelLayouts, ptr %53, i32 0, i32 0
  %55 = load ptr, ptr %54, align 8, !tbaa !42
  %56 = load i32, ptr %6, align 4, !tbaa !21
  %57 = zext i32 %56 to i64
  %58 = getelementptr inbounds nuw %struct.AVChannelLayout, ptr %55, i64 %57
  %59 = load ptr, ptr %5, align 8, !tbaa !38
  %60 = getelementptr inbounds nuw %struct.AVFilterChannelLayouts, ptr %59, i32 0, i32 0
  %61 = load ptr, ptr %60, align 8, !tbaa !42
  %62 = load i32, ptr %7, align 4, !tbaa !21
  %63 = zext i32 %62 to i64
  %64 = getelementptr inbounds nuw %struct.AVChannelLayout, ptr %61, i64 %63
  %65 = call i32 @layouts_compatible(ptr noundef %58, ptr noundef %64)
  %66 = icmp ne i32 %65, 0
  br i1 %66, label %67, label %69

67:                                               ; preds = %52
  %68 = load ptr, ptr %4, align 8, !tbaa !71
  call void (ptr, i32, ptr, ...) @av_log(ptr noundef %68, i32 noundef 16, ptr noundef @.str.11)
  store i32 -22, ptr %3, align 4
  store i32 1, ptr %8, align 4
  br label %78

69:                                               ; preds = %52
  br label %70

70:                                               ; preds = %69
  %71 = load i32, ptr %7, align 4, !tbaa !21
  %72 = add i32 %71, 1
  store i32 %72, ptr %7, align 4, !tbaa !21
  br label %46, !llvm.loop !138

73:                                               ; preds = %46
  br label %74

74:                                               ; preds = %73
  %75 = load i32, ptr %6, align 4, !tbaa !21
  %76 = add i32 %75, 1
  store i32 %76, ptr %6, align 4, !tbaa !21
  br label %37, !llvm.loop !139

77:                                               ; preds = %37
  store i32 0, ptr %3, align 4
  store i32 1, ptr %8, align 4
  br label %78

78:                                               ; preds = %77, %67, %34, %22, %11
  call void @llvm.lifetime.end.p0(i64 4, ptr %7) #7
  call void @llvm.lifetime.end.p0(i64 4, ptr %6) #7
  %79 = load i32, ptr %3, align 4
  ret i32 %79
}