; Function Attrs: nounwind uwtable
define range(i32 -22, 1) i32 @ff_formats_check_channel_layouts(ptr noundef %0, ptr noundef readonly captures(address_is_null) %1) local_unnamed_addr #3 {
  %.not = icmp eq ptr %1, null
  br i1 %.not, label %.loopexit30, label %3

3:                                                ; preds = %2
  %4 = getelementptr inbounds nuw i8, ptr %1, i64 12
  %5 = load i8, ptr %4, align 4, !tbaa !60
  %6 = getelementptr inbounds nuw i8, ptr %1, i64 13
  %7 = load i8, ptr %6, align 1, !tbaa !61
  %8 = icmp slt i8 %5, %7
  br i1 %8, label %.loopexit30.sink.split, label %9

9:                                                ; preds = %3
  %.not22 = icmp eq i8 %5, 0
  %10 = getelementptr inbounds nuw i8, ptr %1, i64 8
  %11 = load i32, ptr %10, align 8, !tbaa !34
  %.not23 = icmp eq i32 %11, 0
  br i1 %.not22, label %12, label %13

12:                                               ; preds = %9
  br i1 %.not23, label %.loopexit30.sink.split, label %.lr.ph33.preheader

13:                                               ; preds = %9
  br i1 %.not23, label %.loopexit30, label %.lr.ph33.preheader

.lr.ph33.preheader:                               ; preds = %12, %13
  %14 = getelementptr inbounds nuw i8, ptr %1, i64 8
  br label %.lr.ph33

.loopexit:                                        ; preds = %layouts_compatible.exit.thread, %.lr.ph33
  %.pre-phi = phi i64 [ %18, %.lr.ph33 ], [ %48, %layouts_compatible.exit.thread ]
  %15 = phi i32 [ %17, %.lr.ph33 ], [ %47, %layouts_compatible.exit.thread ]
  %16 = icmp samesign ult i64 %indvars.iv.next39, %.pre-phi
  %indvars.iv.next = add nuw nsw i64 %indvars.iv, 1
  br i1 %16, label %.lr.ph33, label %.loopexit30, !llvm.loop !125

.lr.ph33:                                         ; preds = %.lr.ph33.preheader, %.loopexit
  %17 = phi i32 [ %11, %.lr.ph33.preheader ], [ %15, %.loopexit ]
  %indvars.iv38 = phi i64 [ 0, %.lr.ph33.preheader ], [ %indvars.iv.next39, %.loopexit ]
  %indvars.iv = phi i64 [ 1, %.lr.ph33.preheader ], [ %indvars.iv.next, %.loopexit ]
  %indvars.iv.next39 = add nuw nsw i64 %indvars.iv38, 1
  %18 = zext i32 %17 to i64
  %19 = icmp samesign ult i64 %indvars.iv.next39, %18
  br i1 %19, label %.lr.ph, label %.loopexit

.lr.ph:                                           ; preds = %.lr.ph33, %layouts_compatible.exit.thread
  %indvars.iv35 = phi i64 [ %indvars.iv.next36, %layouts_compatible.exit.thread ], [ %indvars.iv, %.lr.ph33 ]
  %20 = load ptr, ptr %1, align 8, !tbaa !38
  %21 = getelementptr inbounds nuw %struct.AVChannelLayout, ptr %20, i64 %indvars.iv38
  %22 = getelementptr inbounds nuw %struct.AVChannelLayout, ptr %20, i64 %indvars.iv35
  %23 = tail call i32 @av_channel_layout_compare(ptr noundef %21, ptr noundef nonnull %22) #10
  %.not.i = icmp eq i32 %23, 0
  br i1 %.not.i, label %.loopexit30.sink.split, label %24

24:                                               ; preds = %.lr.ph
  %25 = load i32, ptr %21, align 8, !tbaa !126
  %.not20.i = icmp eq i32 %25, 0
  br i1 %.not20.i, label %26, label %.thread24.i

26:                                               ; preds = %24
  %27 = getelementptr inbounds nuw i8, ptr %21, i64 4
  %28 = load i32, ptr %27, align 4, !tbaa !31
  %.not15.i = icmp eq i32 %28, 0
  %29 = load i32, ptr %22, align 8, !tbaa !126
  %30 = icmp eq i32 %29, 0
  br i1 %.not15.i, label %31, label %41

31:                                               ; preds = %26
  br i1 %30, label %34, label %layouts_compatible.exit.thread

.thread24.i:                                      ; preds = %24
  %32 = load i32, ptr %22, align 8, !tbaa !126
  %33 = icmp eq i32 %32, 0
  br i1 %33, label %34, label %layouts_compatible.exit.thread

34:                                               ; preds = %.thread24.i, %31
  %35 = getelementptr inbounds nuw i8, ptr %22, i64 4
  %36 = load i32, ptr %35, align 4, !tbaa !31
  %.not16.i = icmp eq i32 %36, 0
  br i1 %.not16.i, label %.thread22.i, label %37

37:                                               ; preds = %34
  %38 = getelementptr inbounds nuw i8, ptr %21, i64 4
  %39 = load i32, ptr %38, align 4, !tbaa !31
  %40 = icmp eq i32 %39, %36
  br i1 %40, label %.loopexit30.sink.split, label %.thread22.i

41:                                               ; preds = %26
  br i1 %30, label %..thread22.i_crit_edge, label %layouts_compatible.exit

..thread22.i_crit_edge:                           ; preds = %41
  %.phi.trans.insert41 = getelementptr inbounds nuw i8, ptr %22, i64 4
  %.pre42 = load i32, ptr %.phi.trans.insert41, align 4, !tbaa !31
  br label %.thread22.i

.thread22.i:                                      ; preds = %..thread22.i_crit_edge, %37, %34
  %42 = phi i32 [ %.pre42, %..thread22.i_crit_edge ], [ 1, %37 ], [ 0, %34 ]
  %43 = or i32 %42, %25
  %brmerge.not.i = icmp eq i32 %43, 0
  br i1 %brmerge.not.i, label %.thread.i, label %layouts_compatible.exit.thread

.thread.i:                                        ; preds = %.thread22.i
  %.phi.trans.insert43 = getelementptr inbounds nuw i8, ptr %21, i64 4
  %.pre44 = load i32, ptr %.phi.trans.insert43, align 4, !tbaa !31
  %.not18.i = icmp eq i32 %.pre44, 0
  br i1 %.not18.i, label %layouts_compatible.exit.thread, label %layouts_compatible.exit

layouts_compatible.exit:                          ; preds = %41, %.thread.i
  %44 = phi i32 [ %.pre44, %.thread.i ], [ %28, %41 ]
  %45 = getelementptr inbounds nuw i8, ptr %22, i64 4
  %46 = load i32, ptr %45, align 4, !tbaa !31
  %.not29 = icmp eq i32 %46, %44
  br i1 %.not29, label %.loopexit30.sink.split, label %layouts_compatible.exit.thread

layouts_compatible.exit.thread:                   ; preds = %31, %.thread24.i, %.thread22.i, %.thread.i, %layouts_compatible.exit
  %indvars.iv.next36 = add nuw nsw i64 %indvars.iv35, 1
  %47 = load i32, ptr %14, align 8, !tbaa !34
  %48 = zext i32 %47 to i64
  %49 = icmp samesign ult i64 %indvars.iv.next36, %48
  br i1 %49, label %.lr.ph, label %.loopexit, !llvm.loop !127

.loopexit30.sink.split:                           ; preds = %layouts_compatible.exit, %37, %.lr.ph, %12, %3
  %.str.11.sink = phi ptr [ @.str.9, %3 ], [ @.str.10, %12 ], [ @.str.11, %.lr.ph ], [ @.str.11, %37 ], [ @.str.11, %layouts_compatible.exit ]
  tail call void (ptr, i32, ptr, ...) @av_log(ptr noundef %0, i32 noundef 16, ptr noundef nonnull %.str.11.sink) #10
  br label %.loopexit30

.loopexit30:                                      ; preds = %.loopexit, %.loopexit30.sink.split, %13, %2
  %.020 = phi i32 [ 0, %2 ], [ 0, %13 ], [ -22, %.loopexit30.sink.split ], [ 0, %.loopexit ]
  ret i32 %.020
}